target datalayout = "e-m:e-p270:32:32-p271:32:32-p272:64:64-i64:64-i128:128-f80:128-n8:16:32:64-S128"
target triple = "x86_64-pc-linux-gnu"

; Function Attrs: mustprogress nounwind uwtable
define dso_local noundef i32 @_Z11qoi_read_32PKhPi(ptr noundef %0, ptr noundef %1) #1 {
  %3 = alloca ptr, align 8
  %4 = alloca ptr, align 8
  %5 = alloca i32, align 4
  %6 = alloca i32, align 4
  %7 = alloca i32, align 4
  %8 = alloca i32, align 4
  store ptr %0, ptr %3, align 8
  store ptr %1, ptr %4, align 8
  %9 = load ptr, ptr %3, align 8
  %10 = load ptr, ptr %4, align 8
  %11 = load i32, ptr %10, align 4
  %12 = add nsw i32 %11, 1
  store i32 %12, ptr %10, align 4
  %13 = sext i32 %11 to i64
  %14 = getelementptr inbounds i8, ptr %9, i64 %13
  %15 = load i8, ptr %14, align 1
  %16 = zext i8 %15 to i32
  store i32 %16, ptr %5, align 4
  %17 = load ptr, ptr %3, align 8
  %18 = load ptr, ptr %4, align 8
  %19 = load i32, ptr %18, align 4
  %20 = add nsw i32 %19, 1
  store i32 %20, ptr %18, align 4
  %21 = sext i32 %19 to i64
  %22 = getelementptr inbounds i8, ptr %17, i64 %21
  %23 = load i8, ptr %22, align 1
  %24 = zext i8 %23 to i32
  store i32 %24, ptr %6, align 4
  %25 = load ptr, ptr %3, align 8
  %26 = load ptr, ptr %4, align 8
  %27 = load i32, ptr %26, align 4
  %28 = add nsw i32 %27, 1
  store i32 %28, ptr %26, align 4
  %29 = sext i32 %27 to i64
  %30 = getelementptr inbounds i8, ptr %25, i64 %29
  %31 = load i8, ptr %30, align 1
  %32 = zext i8 %31 to i32
  store i32 %32, ptr %7, align 4
  %33 = load ptr, ptr %3, align 8
  %34 = load ptr, ptr %4, align 8
  %35 = load i32, ptr %34, align 4
  %36 = add nsw i32 %35, 1
  store i32 %36, ptr %34, align 4
  %37 = sext i32 %35 to i64
  %38 = getelementptr inbounds i8, ptr %33, i64 %37
  %39 = load i8, ptr %38, align 1
  %40 = zext i8 %39 to i32
  store i32 %40, ptr %8, align 4
  %41 = load i32, ptr %5, align 4
  %42 = shl i32 %41, 24
  %43 = load i32, ptr %6, align 4
  %44 = shl i32 %43, 16
  %45 = or i32 %42, %44
  %46 = load i32, ptr %7, align 4
  %47 = shl i32 %46, 8
  %48 = or i32 %45, %47
  %49 = load i32, ptr %8, align 4
  %50 = or i32 %48, %49
  ret i32 %50
}