; Function Attrs: mustprogress nofree norecurse nosync nounwind willreturn memory(argmem: readwrite) uwtable
define dso_local noundef i32 @_Z11qoi_read_32PKhPi(ptr nocapture noundef readonly %0, ptr nocapture noundef %1) local_unnamed_addr #3 {
  %3 = load i32, ptr %1, align 4
  %4 = add nsw i32 %3, 1
  store i32 %4, ptr %1, align 4
  %5 = sext i32 %3 to i64
  %6 = getelementptr inbounds i8, ptr %0, i64 %5
  %7 = load i8, ptr %6, align 1
  %8 = zext i8 %7 to i32
  %9 = add nsw i32 %3, 2
  store i32 %9, ptr %1, align 4
  %10 = sext i32 %4 to i64
  %11 = getelementptr inbounds i8, ptr %0, i64 %10
  %12 = load i8, ptr %11, align 1
  %13 = zext i8 %12 to i32
  %14 = add nsw i32 %3, 3
  store i32 %14, ptr %1, align 4
  %15 = sext i32 %9 to i64
  %16 = getelementptr inbounds i8, ptr %0, i64 %15
  %17 = load i8, ptr %16, align 1
  %18 = zext i8 %17 to i32
  %19 = add nsw i32 %3, 4
  store i32 %19, ptr %1, align 4
  %20 = sext i32 %14 to i64
  %21 = getelementptr inbounds i8, ptr %0, i64 %20
  %22 = load i8, ptr %21, align 1
  %23 = zext i8 %22 to i32
  %24 = shl nuw i32 %8, 24
  %25 = shl nuw nsw i32 %13, 16
  %26 = or disjoint i32 %25, %24
  %27 = shl nuw nsw i32 %18, 8
  %28 = or disjoint i32 %26, %27
  %29 = or disjoint i32 %28, %23
  ret i32 %29
}